; Function Attrs: nounwind uwtable
define noundef ptr @Fraig_DfsOne(ptr noundef captures(none) %0, ptr noundef %1, i32 noundef %2) local_unnamed_addr #0 {
  %4 = getelementptr inbounds nuw i8, ptr %0, i64 128
  %5 = load i32, ptr %4, align 8
  %6 = add nsw i32 %5, 1
  store i32 %6, ptr %4, align 8
  %7 = tail call ptr @Fraig_NodeVecAlloc(i32 noundef 100) #15
  %8 = ptrtoint ptr %1 to i64
  %9 = and i64 %8, -2
  %10 = inttoptr i64 %9 to ptr
  %.val = load i32, ptr %4, align 8
  tail call fastcc void @Fraig_Dfs_rec(i32 %.val, ptr noundef %10, ptr noundef %7, i32 noundef %2)
  ret ptr %7
}